target datalayout = "e-m:e-p270:32:32-p271:32:32-p272:64:64-i64:64-i128:128-f80:128-n8:16:32:64-S128"
target triple = "x86_64-pc-linux-gnu"

%struct._longobject = type { %struct._object, %struct._PyLongValue }
%struct._object = type { %union.anon, ptr }
%union.anon = type { i64 }
%struct._PyLongValue = type { i64, [1 x i32] }
%struct.anon = type { i32, i32 }

@_Py_TrueStruct = external global %struct._longobject, align 8
@_Py_NoneStruct = external global %struct._object, align 8
@.str.28 = private unnamed_addr constant [38 x i8] c"../cpython/Modules/_testcapi/object.c\00", align 1
@_Py_FalseStruct = external global %struct._longobject, align 8
@.str.44 = private unnamed_addr constant [16 x i8] c"Py_Is(obj, obj)\00", align 1
@.str.45 = private unnamed_addr constant [20 x i8] c"!Py_Is(obj, o_none)\00", align 1
@.str.46 = private unnamed_addr constant [22 x i8] c"Py_Is(o_none, o_none)\00", align 1
@.str.47 = private unnamed_addr constant [22 x i8] c"Py_Is(o_true, o_true)\00", align 1
@.str.48 = private unnamed_addr constant [24 x i8] c"!Py_Is(o_false, o_true)\00", align 1
@.str.49 = private unnamed_addr constant [20 x i8] c"!Py_Is(obj, o_true)\00", align 1
@.str.50 = private unnamed_addr constant [24 x i8] c"Py_Is(o_false, o_false)\00", align 1
@.str.51 = private unnamed_addr constant [24 x i8] c"!Py_Is(o_true, o_false)\00", align 1
@.str.52 = private unnamed_addr constant [21 x i8] c"!Py_Is(obj, o_false)\00", align 1
@__PRETTY_FUNCTION__.test_py_is_funcs = private unnamed_addr constant [51 x i8] c"PyObject *test_py_is_funcs(PyObject *, PyObject *)\00", align 1

; Function Attrs: alwaysinline nounwind uwtable
define internal i32 @_Py_IsImmortal(ptr noundef %0) #4 {
  %2 = alloca ptr, align 8
  store ptr %0, ptr %2, align 8, !tbaa !3
  %3 = load ptr, ptr %2, align 8, !tbaa !3
  %4 = getelementptr inbounds nuw %struct._object, ptr %3, i32 0, i32 0
  %5 = getelementptr inbounds nuw %struct.anon, ptr %4, i32 0, i32 0
  %6 = load i32, ptr %5, align 8, !tbaa !16
  %7 = icmp slt i32 %6, 0
  %8 = zext i1 %7 to i32
  ret i32 %8
}

; Function Attrs: alwaysinline nounwind uwtable
define internal void @Py_DECREF(ptr noundef %0) #4 {
  %2 = alloca ptr, align 8
  store ptr %0, ptr %2, align 8, !tbaa !3
  %3 = load ptr, ptr %2, align 8, !tbaa !3
  %4 = call i32 @_Py_IsImmortal(ptr noundef %3)
  %5 = icmp ne i32 %4, 0
  br i1 %5, label %6, label %7

6:                                                ; preds = %1
  br label %16

7:                                                ; preds = %1
  %8 = load ptr, ptr %2, align 8, !tbaa !3
  %9 = getelementptr inbounds nuw %struct._object, ptr %8, i32 0, i32 0
  %10 = getelementptr inbounds nuw %struct.anon, ptr %9, i32 0, i32 0
  %11 = load i32, ptr %10, align 8, !tbaa !16
  %12 = add i32 %11, -1
  store i32 %12, ptr %10, align 8, !tbaa !16
  %13 = icmp eq i32 %12, 0
  br i1 %13, label %14, label %16

14:                                               ; preds = %7
  %15 = load ptr, ptr %2, align 8, !tbaa !3
  call void @_Py_Dealloc(ptr noundef %15)
  br label %16

16:                                               ; preds = %6, %14, %7
  ret void
}

; Function Attrs: nounwind uwtable
define internal ptr @test_py_is_funcs(ptr noundef %0, ptr noundef %1) #0 {
  %3 = alloca ptr, align 8
  %4 = alloca ptr, align 8
  %5 = alloca ptr, align 8
  %6 = alloca ptr, align 8
  %7 = alloca ptr, align 8
  %8 = alloca ptr, align 8
  %9 = alloca ptr, align 8
  %10 = alloca i32, align 4
  store ptr %0, ptr %4, align 8, !tbaa !3
  store ptr %1, ptr %5, align 8, !tbaa !3
  br label %11

11:                                               ; preds = %2
  call void @llvm.lifetime.start.p0(i64 8, ptr %6) #6
  store ptr @_Py_NoneStruct, ptr %6, align 8, !tbaa !3
  call void @llvm.lifetime.start.p0(i64 8, ptr %7) #6
  store ptr @_Py_TrueStruct, ptr %7, align 8, !tbaa !3
  call void @llvm.lifetime.start.p0(i64 8, ptr %8) #6
  store ptr @_Py_FalseStruct, ptr %8, align 8, !tbaa !3
  call void @llvm.lifetime.start.p0(i64 8, ptr %9) #6
  %12 = call ptr @PyList_New(i64 noundef 0)
  store ptr %12, ptr %9, align 8, !tbaa !3
  %13 = load ptr, ptr %9, align 8, !tbaa !3
  %14 = icmp eq ptr %13, null
  br i1 %14, label %15, label %16

15:                                               ; preds = %11
  store ptr null, ptr %3, align 8
  store i32 1, ptr %10, align 4
  br label %98

16:                                               ; preds = %11
  %17 = load ptr, ptr %9, align 8, !tbaa !3
  %18 = load ptr, ptr %9, align 8, !tbaa !3
  %19 = call i32 @Py_Is(ptr noundef %17, ptr noundef %18)
  %20 = icmp ne i32 %19, 0
  br i1 %20, label %21, label %22

21:                                               ; preds = %16
  br label %24

22:                                               ; preds = %16
  call void @__assert_fail(ptr noundef @.str.44, ptr noundef @.str.28, i32 noundef 462, ptr noundef @__PRETTY_FUNCTION__.test_py_is_funcs) #7
  unreachable

23:                                               ; No predecessors!
  br label %24

24:                                               ; preds = %23, %21
  %25 = load ptr, ptr %9, align 8, !tbaa !3
  %26 = load ptr, ptr %6, align 8, !tbaa !3
  %27 = call i32 @Py_Is(ptr noundef %25, ptr noundef %26)
  %28 = icmp ne i32 %27, 0
  br i1 %28, label %30, label %29

29:                                               ; preds = %24
  br label %32

30:                                               ; preds = %24
  call void @__assert_fail(ptr noundef @.str.45, ptr noundef @.str.28, i32 noundef 462, ptr noundef @__PRETTY_FUNCTION__.test_py_is_funcs) #7
  unreachable

31:                                               ; No predecessors!
  br label %32

32:                                               ; preds = %31, %29
  %33 = load ptr, ptr %6, align 8, !tbaa !3
  %34 = load ptr, ptr %6, align 8, !tbaa !3
  %35 = call i32 @Py_Is(ptr noundef %33, ptr noundef %34)
  %36 = icmp ne i32 %35, 0
  br i1 %36, label %37, label %38

37:                                               ; preds = %32
  br label %40

38:                                               ; preds = %32
  call void @__assert_fail(ptr noundef @.str.46, ptr noundef @.str.28, i32 noundef 462, ptr noundef @__PRETTY_FUNCTION__.test_py_is_funcs) #7
  unreachable

39:                                               ; No predecessors!
  br label %40

40:                                               ; preds = %39, %37
  %41 = load ptr, ptr %9, align 8, !tbaa !3
  %42 = load ptr, ptr %6, align 8, !tbaa !3
  %43 = call i32 @Py_Is(ptr noundef %41, ptr noundef %42)
  %44 = icmp ne i32 %43, 0
  br i1 %44, label %46, label %45

45:                                               ; preds = %40
  br label %48

46:                                               ; preds = %40
  call void @__assert_fail(ptr noundef @.str.45, ptr noundef @.str.28, i32 noundef 462, ptr noundef @__PRETTY_FUNCTION__.test_py_is_funcs) #7
  unreachable

47:                                               ; No predecessors!
  br label %48

48:                                               ; preds = %47, %45
  %49 = load ptr, ptr %7, align 8, !tbaa !3
  %50 = load ptr, ptr %7, align 8, !tbaa !3
  %51 = call i32 @Py_Is(ptr noundef %49, ptr noundef %50)
  %52 = icmp ne i32 %51, 0
  br i1 %52, label %53, label %54

53:                                               ; preds = %48
  br label %56

54:                                               ; preds = %48
  call void @__assert_fail(ptr noundef @.str.47, ptr noundef @.str.28, i32 noundef 462, ptr noundef @__PRETTY_FUNCTION__.test_py_is_funcs) #7
  unreachable

55:                                               ; No predecessors!
  br label %56

56:                                               ; preds = %55, %53
  %57 = load ptr, ptr %8, align 8, !tbaa !3
  %58 = load ptr, ptr %7, align 8, !tbaa !3
  %59 = call i32 @Py_Is(ptr noundef %57, ptr noundef %58)
  %60 = icmp ne i32 %59, 0
  br i1 %60, label %62, label %61

61:                                               ; preds = %56
  br label %64

62:                                               ; preds = %56
  call void @__assert_fail(ptr noundef @.str.48, ptr noundef @.str.28, i32 noundef 462, ptr noundef @__PRETTY_FUNCTION__.test_py_is_funcs) #7
  unreachable

63:                                               ; No predecessors!
  br label %64

64:                                               ; preds = %63, %61
  %65 = load ptr, ptr %9, align 8, !tbaa !3
  %66 = load ptr, ptr %7, align 8, !tbaa !3
  %67 = call i32 @Py_Is(ptr noundef %65, ptr noundef %66)
  %68 = icmp ne i32 %67, 0
  br i1 %68, label %70, label %69

69:                                               ; preds = %64
  br label %72

70:                                               ; preds = %64
  call void @__assert_fail(ptr noundef @.str.49, ptr noundef @.str.28, i32 noundef 462, ptr noundef @__PRETTY_FUNCTION__.test_py_is_funcs) #7
  unreachable

71:                                               ; No predecessors!
  br label %72

72:                                               ; preds = %71, %69
  %73 = load ptr, ptr %8, align 8, !tbaa !3
  %74 = load ptr, ptr %8, align 8, !tbaa !3
  %75 = call i32 @Py_Is(ptr noundef %73, ptr noundef %74)
  %76 = icmp ne i32 %75, 0
  br i1 %76, label %77, label %78

77:                                               ; preds = %72
  br label %80

78:                                               ; preds = %72
  call void @__assert_fail(ptr noundef @.str.50, ptr noundef @.str.28, i32 noundef 462, ptr noundef @__PRETTY_FUNCTION__.test_py_is_funcs) #7
  unreachable

79:                                               ; No predecessors!
  br label %80

80:                                               ; preds = %79, %77
  %81 = load ptr, ptr %7, align 8, !tbaa !3
  %82 = load ptr, ptr %8, align 8, !tbaa !3
  %83 = call i32 @Py_Is(ptr noundef %81, ptr noundef %82)
  %84 = icmp ne i32 %83, 0
  br i1 %84, label %86, label %85

85:                                               ; preds = %80
  br label %88

86:                                               ; preds = %80
  call void @__assert_fail(ptr noundef @.str.51, ptr noundef @.str.28, i32 noundef 462, ptr noundef @__PRETTY_FUNCTION__.test_py_is_funcs) #7
  unreachable

87:                                               ; No predecessors!
  br label %88

88:                                               ; preds = %87, %85
  %89 = load ptr, ptr %9, align 8, !tbaa !3
  %90 = load ptr, ptr %8, align 8, !tbaa !3
  %91 = call i32 @Py_Is(ptr noundef %89, ptr noundef %90)
  %92 = icmp ne i32 %91, 0
  br i1 %92, label %94, label %93

93:                                               ; preds = %88
  br label %96

94:                                               ; preds = %88
  call void @__assert_fail(ptr noundef @.str.52, ptr noundef @.str.28, i32 noundef 462, ptr noundef @__PRETTY_FUNCTION__.test_py_is_funcs) #7
  unreachable

95:                                               ; No predecessors!
  br label %96

96:                                               ; preds = %95, %93
  %97 = load ptr, ptr %9, align 8, !tbaa !3
  call void @Py_DECREF(ptr noundef %97)
  store ptr @_Py_NoneStruct, ptr %3, align 8
  store i32 1, ptr %10, align 4
  br label %98

98:                                               ; preds = %96, %15
  call void @llvm.lifetime.end.p0(i64 8, ptr %9) #6
  call void @llvm.lifetime.end.p0(i64 8, ptr %8) #6
  call void @llvm.lifetime.end.p0(i64 8, ptr %7) #6
  call void @llvm.lifetime.end.p0(i64 8, ptr %6) #6
  br label %99

99:                                               ; preds = %98
  %100 = load ptr, ptr %3, align 8
  ret ptr %100
}