; Function Attrs: nounwind uwtable
define internal noundef ptr @test_py_is_funcs(ptr readnone captures(none) %0, ptr readnone captures(none) %1) #0 {
  %3 = tail call ptr @PyList_New(i64 noundef 0) #5
  %4 = icmp eq ptr %3, null
  br i1 %4, label %Py_DECREF.exit, label %5

5:                                                ; preds = %2
  %6 = tail call i32 @Py_Is(ptr noundef nonnull %3, ptr noundef nonnull %3) #5
  %.not = icmp eq i32 %6, 0
  br i1 %.not, label %7, label %8

7:                                                ; preds = %5
  tail call void @__assert_fail(ptr noundef nonnull @.str.44, ptr noundef nonnull @.str.28, i32 noundef 462, ptr noundef nonnull @__PRETTY_FUNCTION__.test_py_is_funcs) #6
  unreachable

8:                                                ; preds = %5
  %9 = tail call i32 @Py_Is(ptr noundef nonnull %3, ptr noundef nonnull @_Py_NoneStruct) #5
  %.not24 = icmp eq i32 %9, 0
  br i1 %.not24, label %11, label %10

10:                                               ; preds = %8
  tail call void @__assert_fail(ptr noundef nonnull @.str.45, ptr noundef nonnull @.str.28, i32 noundef 462, ptr noundef nonnull @__PRETTY_FUNCTION__.test_py_is_funcs) #6
  unreachable

11:                                               ; preds = %8
  %12 = tail call i32 @Py_Is(ptr noundef nonnull @_Py_NoneStruct, ptr noundef nonnull @_Py_NoneStruct) #5
  %.not25 = icmp eq i32 %12, 0
  br i1 %.not25, label %13, label %14

13:                                               ; preds = %11
  tail call void @__assert_fail(ptr noundef nonnull @.str.46, ptr noundef nonnull @.str.28, i32 noundef 462, ptr noundef nonnull @__PRETTY_FUNCTION__.test_py_is_funcs) #6
  unreachable

14:                                               ; preds = %11
  %15 = tail call i32 @Py_Is(ptr noundef nonnull %3, ptr noundef nonnull @_Py_NoneStruct) #5
  %.not26 = icmp eq i32 %15, 0
  br i1 %.not26, label %17, label %16

16:                                               ; preds = %14
  tail call void @__assert_fail(ptr noundef nonnull @.str.45, ptr noundef nonnull @.str.28, i32 noundef 462, ptr noundef nonnull @__PRETTY_FUNCTION__.test_py_is_funcs) #6
  unreachable

17:                                               ; preds = %14
  %18 = tail call i32 @Py_Is(ptr noundef nonnull @_Py_TrueStruct, ptr noundef nonnull @_Py_TrueStruct) #5
  %.not27 = icmp eq i32 %18, 0
  br i1 %.not27, label %19, label %20

19:                                               ; preds = %17
  tail call void @__assert_fail(ptr noundef nonnull @.str.47, ptr noundef nonnull @.str.28, i32 noundef 462, ptr noundef nonnull @__PRETTY_FUNCTION__.test_py_is_funcs) #6
  unreachable

20:                                               ; preds = %17
  %21 = tail call i32 @Py_Is(ptr noundef nonnull @_Py_FalseStruct, ptr noundef nonnull @_Py_TrueStruct) #5
  %.not28 = icmp eq i32 %21, 0
  br i1 %.not28, label %23, label %22

22:                                               ; preds = %20
  tail call void @__assert_fail(ptr noundef nonnull @.str.48, ptr noundef nonnull @.str.28, i32 noundef 462, ptr noundef nonnull @__PRETTY_FUNCTION__.test_py_is_funcs) #6
  unreachable

23:                                               ; preds = %20
  %24 = tail call i32 @Py_Is(ptr noundef nonnull %3, ptr noundef nonnull @_Py_TrueStruct) #5
  %.not29 = icmp eq i32 %24, 0
  br i1 %.not29, label %26, label %25

25:                                               ; preds = %23
  tail call void @__assert_fail(ptr noundef nonnull @.str.49, ptr noundef nonnull @.str.28, i32 noundef 462, ptr noundef nonnull @__PRETTY_FUNCTION__.test_py_is_funcs) #6
  unreachable

26:                                               ; preds = %23
  %27 = tail call i32 @Py_Is(ptr noundef nonnull @_Py_FalseStruct, ptr noundef nonnull @_Py_FalseStruct) #5
  %.not30 = icmp eq i32 %27, 0
  br i1 %.not30, label %28, label %29

28:                                               ; preds = %26
  tail call void @__assert_fail(ptr noundef nonnull @.str.50, ptr noundef nonnull @.str.28, i32 noundef 462, ptr noundef nonnull @__PRETTY_FUNCTION__.test_py_is_funcs) #6
  unreachable

29:                                               ; preds = %26
  %30 = tail call i32 @Py_Is(ptr noundef nonnull @_Py_TrueStruct, ptr noundef nonnull @_Py_FalseStruct) #5
  %.not31 = icmp eq i32 %30, 0
  br i1 %.not31, label %32, label %31

31:                                               ; preds = %29
  tail call void @__assert_fail(ptr noundef nonnull @.str.51, ptr noundef nonnull @.str.28, i32 noundef 462, ptr noundef nonnull @__PRETTY_FUNCTION__.test_py_is_funcs) #6
  unreachable

32:                                               ; preds = %29
  %33 = tail call i32 @Py_Is(ptr noundef nonnull %3, ptr noundef nonnull @_Py_FalseStruct) #5
  %.not32 = icmp eq i32 %33, 0
  br i1 %.not32, label %35, label %34

34:                                               ; preds = %32
  tail call void @__assert_fail(ptr noundef nonnull @.str.52, ptr noundef nonnull @.str.28, i32 noundef 462, ptr noundef nonnull @__PRETTY_FUNCTION__.test_py_is_funcs) #6
  unreachable

35:                                               ; preds = %32
  %36 = load i32, ptr %3, align 8, !tbaa !8
  %.not.i = icmp sgt i32 %36, -1
  br i1 %.not.i, label %37, label %Py_DECREF.exit

37:                                               ; preds = %35
  %38 = add nsw i32 %36, -1
  store i32 %38, ptr %3, align 8, !tbaa !8
  %39 = icmp eq i32 %38, 0
  br i1 %39, label %40, label %Py_DECREF.exit

40:                                               ; preds = %37
  tail call void @_Py_Dealloc(ptr noundef nonnull %3) #5
  br label %Py_DECREF.exit

Py_DECREF.exit:                                   ; preds = %40, %37, %35, %2
  %.0 = phi ptr [ null, %2 ], [ @_Py_NoneStruct, %35 ], [ @_Py_NoneStruct, %37 ], [ @_Py_NoneStruct, %40 ]
  ret ptr %.0
}